; Function Attrs: null_pointer_is_valid sspstrong uwtable
define internal void @sip_draw_hash_responses(ptr noundef readonly captures(none) %0, ptr noundef readonly captures(address_is_null) %1, ptr noundef %2) #0 {
  %4 = icmp eq ptr %1, null
  br i1 %4, label %5, label %7

5:                                                ; preds = %3
  %6 = load i32, ptr %0, align 4
  tail call void (ptr, i32, ptr, i64, ptr, ptr, ...) @ws_log_full(ptr noundef nonnull @.str.16, i32 noundef 5, ptr noundef nonnull @.str.17, i64 noundef 103, ptr noundef nonnull @__func__.sip_draw_hash_responses, ptr noundef nonnull @.str.18, i32 noundef %6)
  tail call void @exit(i32 noundef 1) #10
  unreachable

7:                                                ; preds = %3
  %8 = load i32, ptr %1, align 8
  %9 = icmp eq i32 %8, 0
  br i1 %9, label %16, label %10

10:                                               ; preds = %7
  %11 = getelementptr inbounds nuw i8, ptr %1, i64 4
  %12 = load i32, ptr %11, align 4
  %13 = getelementptr inbounds nuw i8, ptr %1, i64 8
  %14 = load ptr, ptr %13, align 8
  %15 = tail call i32 (i32, ptr, ...) @__printf_chk(i32 noundef 2, ptr noundef %2, i32 noundef %12, ptr noundef %14, i32 noundef %8)
  br label %16

16:                                               ; preds = %7, %10
  ret void
}